target datalayout = "e-m:e-p270:32:32-p271:32:32-p272:64:64-i64:64-i128:128-f80:128-n8:16:32:64-S128"
target triple = "x86_64-pc-linux-gnu"

%"class.google::protobuf::io::CopyingInputStream" = type { ptr }
%"class.google::protobuf::io::IstreamInputStream::CopyingIstreamInputStream" = type { %"class.google::protobuf::io::CopyingInputStream", ptr }

; Function Attrs: mustprogress uwtable
define noundef i32 @_ZN6google8protobuf2io18IstreamInputStream25CopyingIstreamInputStream4ReadEPvi(ptr noundef nonnull align 8 dereferenceable(16) %0, ptr noundef %1, i32 noundef %2) unnamed_addr #4 align 2 {
  %4 = alloca i32, align 4
  %5 = alloca ptr, align 8
  %6 = alloca ptr, align 8
  %7 = alloca i32, align 4
  %8 = alloca i32, align 4
  store ptr %0, ptr %5, align 8
  store ptr %1, ptr %6, align 8
  store i32 %2, ptr %7, align 4
  %9 = load ptr, ptr %5, align 8
  %10 = getelementptr inbounds %"class.google::protobuf::io::IstreamInputStream::CopyingIstreamInputStream", ptr %9, i32 0, i32 1
  %11 = load ptr, ptr %10, align 8
  %12 = load ptr, ptr %6, align 8
  %13 = load i32, ptr %7, align 4
  %14 = sext i32 %13 to i64
  %15 = call noundef nonnull align 8 dereferenceable(16) ptr @_ZNSi4readEPcl(ptr noundef nonnull align 8 dereferenceable(16) %11, ptr noundef %12, i64 noundef %14)
  %16 = getelementptr inbounds %"class.google::protobuf::io::IstreamInputStream::CopyingIstreamInputStream", ptr %9, i32 0, i32 1
  %17 = load ptr, ptr %16, align 8
  %18 = call noundef i64 @_ZNKSi6gcountEv(ptr noundef nonnull align 8 dereferenceable(16) %17)
  %19 = trunc i64 %18 to i32
  store i32 %19, ptr %8, align 4
  %20 = load i32, ptr %8, align 4
  %21 = icmp eq i32 %20, 0
  br i1 %21, label %22, label %39

22:                                               ; preds = %3
  %23 = getelementptr inbounds %"class.google::protobuf::io::IstreamInputStream::CopyingIstreamInputStream", ptr %9, i32 0, i32 1
  %24 = load ptr, ptr %23, align 8
  %25 = load ptr, ptr %24, align 8
  %26 = getelementptr i8, ptr %25, i64 -24
  %27 = load i64, ptr %26, align 8
  %28 = getelementptr inbounds i8, ptr %24, i64 %27
  %29 = call noundef zeroext i1 @_ZNKSt9basic_iosIcSt11char_traitsIcEE4failEv(ptr noundef nonnull align 8 dereferenceable(264) %28)
  br i1 %29, label %30, label %39

30:                                               ; preds = %22
  %31 = getelementptr inbounds %"class.google::protobuf::io::IstreamInputStream::CopyingIstreamInputStream", ptr %9, i32 0, i32 1
  %32 = load ptr, ptr %31, align 8
  %33 = load ptr, ptr %32, align 8
  %34 = getelementptr i8, ptr %33, i64 -24
  %35 = load i64, ptr %34, align 8
  %36 = getelementptr inbounds i8, ptr %32, i64 %35
  %37 = call noundef zeroext i1 @_ZNKSt9basic_iosIcSt11char_traitsIcEE3eofEv(ptr noundef nonnull align 8 dereferenceable(264) %36)
  br i1 %37, label %39, label %38

38:                                               ; preds = %30
  store i32 -1, ptr %4, align 4
  br label %41

39:                                               ; preds = %30, %22, %3
  %40 = load i32, ptr %8, align 4
  store i32 %40, ptr %4, align 4
  br label %41

41:                                               ; preds = %39, %38
  %42 = load i32, ptr %4, align 4
  ret i32 %42
}