; Function Attrs: mustprogress uwtable
define noundef i32 @_ZN6google8protobuf2io18IstreamInputStream25CopyingIstreamInputStream4ReadEPvi(ptr nocapture noundef nonnull readonly align 8 dereferenceable(16) %0, ptr noundef %1, i32 noundef %2) unnamed_addr #3 align 2 {
  %4 = getelementptr inbounds i8, ptr %0, i64 8
  %5 = load ptr, ptr %4, align 8
  %6 = sext i32 %2 to i64
  %7 = tail call noundef nonnull align 8 dereferenceable(16) ptr @_ZNSi4readEPcl(ptr noundef nonnull align 8 dereferenceable(16) %5, ptr noundef %1, i64 noundef %6)
  %8 = load ptr, ptr %4, align 8
  %9 = tail call noundef i64 @_ZNKSi6gcountEv(ptr noundef nonnull align 8 dereferenceable(16) %8)
  %10 = trunc i64 %9 to i32
  %11 = icmp eq i32 %10, 0
  br i1 %11, label %12, label %26

12:                                               ; preds = %3
  %13 = load ptr, ptr %4, align 8
  %14 = load ptr, ptr %13, align 8
  %15 = getelementptr i8, ptr %14, i64 -24
  %16 = load i64, ptr %15, align 8
  %17 = getelementptr inbounds i8, ptr %13, i64 %16
  %18 = tail call noundef zeroext i1 @_ZNKSt9basic_iosIcSt11char_traitsIcEE4failEv(ptr noundef nonnull align 8 dereferenceable(264) %17)
  br i1 %18, label %19, label %26

19:                                               ; preds = %12
  %20 = load ptr, ptr %4, align 8
  %21 = load ptr, ptr %20, align 8
  %22 = getelementptr i8, ptr %21, i64 -24
  %23 = load i64, ptr %22, align 8
  %24 = getelementptr inbounds i8, ptr %20, i64 %23
  %25 = tail call noundef zeroext i1 @_ZNKSt9basic_iosIcSt11char_traitsIcEE3eofEv(ptr noundef nonnull align 8 dereferenceable(264) %24)
  br i1 %25, label %26, label %27

26:                                               ; preds = %19, %12, %3
  br label %27

27:                                               ; preds = %19, %26
  %.0 = phi i32 [ %10, %26 ], [ -1, %19 ]
  ret i32 %.0
}